target datalayout = "e-m:e-p270:32:32-p271:32:32-p272:64:64-i64:64-i128:128-f80:128-n8:16:32:64-S128"
target triple = "x86_64-pc-linux-gnu"

; Function Attrs: nounwind uwtable
define i32 @wc_DhCheckPubValue(ptr noundef %0, i32 noundef %1, ptr noundef %2, i32 noundef %3) #0 {
  %5 = alloca ptr, align 8
  %6 = alloca i32, align 4
  %7 = alloca ptr, align 8
  %8 = alloca i32, align 4
  %9 = alloca i32, align 4
  %10 = alloca i32, align 4
  store ptr %0, ptr %5, align 8, !tbaa !16
  store i32 %1, ptr %6, align 4, !tbaa !9
  store ptr %2, ptr %7, align 8, !tbaa !16
  store i32 %3, ptr %8, align 4, !tbaa !9
  call void @llvm.lifetime.start.p0(i64 4, ptr %9) #9
  store i32 0, ptr %9, align 4, !tbaa !9
  call void @llvm.lifetime.start.p0(i64 4, ptr %10) #9
  store i32 0, ptr %10, align 4, !tbaa !9
  br label %11

11:                                               ; preds = %26, %4
  %12 = load i32, ptr %10, align 4, !tbaa !9
  %13 = load i32, ptr %8, align 4, !tbaa !9
  %14 = icmp ult i32 %12, %13
  br i1 %14, label %15, label %23

15:                                               ; preds = %11
  %16 = load ptr, ptr %7, align 8, !tbaa !16
  %17 = load i32, ptr %10, align 4, !tbaa !9
  %18 = zext i32 %17 to i64
  %19 = getelementptr inbounds nuw i8, ptr %16, i64 %18
  %20 = load i8, ptr %19, align 1, !tbaa !19
  %21 = zext i8 %20 to i32
  %22 = icmp eq i32 %21, 0
  br label %23

23:                                               ; preds = %15, %11
  %24 = phi i1 [ false, %11 ], [ %22, %15 ]
  br i1 %24, label %25, label %29

25:                                               ; preds = %23
  br label %26

26:                                               ; preds = %25
  %27 = load i32, ptr %10, align 4, !tbaa !9
  %28 = add i32 %27, 1
  store i32 %28, ptr %10, align 4, !tbaa !9
  br label %11, !llvm.loop !20

29:                                               ; preds = %23
  %30 = load i32, ptr %10, align 4, !tbaa !9
  %31 = load i32, ptr %8, align 4, !tbaa !9
  %32 = sub i32 %31, %30
  store i32 %32, ptr %8, align 4, !tbaa !9
  %33 = load i32, ptr %10, align 4, !tbaa !9
  %34 = load ptr, ptr %7, align 8, !tbaa !16
  %35 = zext i32 %33 to i64
  %36 = getelementptr inbounds nuw i8, ptr %34, i64 %35
  store ptr %36, ptr %7, align 8, !tbaa !16
  %37 = load i32, ptr %8, align 4, !tbaa !9
  %38 = icmp eq i32 %37, 0
  br i1 %38, label %48, label %39

39:                                               ; preds = %29
  %40 = load i32, ptr %8, align 4, !tbaa !9
  %41 = icmp eq i32 %40, 1
  br i1 %41, label %42, label %49

42:                                               ; preds = %39
  %43 = load ptr, ptr %7, align 8, !tbaa !16
  %44 = getelementptr inbounds i8, ptr %43, i64 0
  %45 = load i8, ptr %44, align 1, !tbaa !19
  %46 = zext i8 %45 to i32
  %47 = icmp eq i32 %46, 1
  br i1 %47, label %48, label %49

48:                                               ; preds = %42, %29
  store i32 -98, ptr %9, align 4, !tbaa !9
  br label %138

49:                                               ; preds = %42, %39
  %50 = load i32, ptr %8, align 4, !tbaa !9
  %51 = load i32, ptr %6, align 4, !tbaa !9
  %52 = icmp eq i32 %50, %51
  br i1 %52, label %53, label %131

53:                                               ; preds = %49
  store i32 0, ptr %10, align 4, !tbaa !9
  br label %54

54:                                               ; preds = %76, %53
  %55 = load i32, ptr %10, align 4, !tbaa !9
  %56 = load i32, ptr %8, align 4, !tbaa !9
  %57 = sub i32 %56, 1
  %58 = icmp ult i32 %55, %57
  br i1 %58, label %59, label %73

59:                                               ; preds = %54
  %60 = load ptr, ptr %7, align 8, !tbaa !16
  %61 = load i32, ptr %10, align 4, !tbaa !9
  %62 = zext i32 %61 to i64
  %63 = getelementptr inbounds nuw i8, ptr %60, i64 %62
  %64 = load i8, ptr %63, align 1, !tbaa !19
  %65 = zext i8 %64 to i32
  %66 = load ptr, ptr %5, align 8, !tbaa !16
  %67 = load i32, ptr %10, align 4, !tbaa !9
  %68 = zext i32 %67 to i64
  %69 = getelementptr inbounds nuw i8, ptr %66, i64 %68
  %70 = load i8, ptr %69, align 1, !tbaa !19
  %71 = zext i8 %70 to i32
  %72 = icmp eq i32 %65, %71
  br label %73

73:                                               ; preds = %59, %54
  %74 = phi i1 [ false, %54 ], [ %72, %59 ]
  br i1 %74, label %75, label %79

75:                                               ; preds = %73
  br label %76

76:                                               ; preds = %75
  %77 = load i32, ptr %10, align 4, !tbaa !9
  %78 = add i32 %77, 1
  store i32 %78, ptr %10, align 4, !tbaa !9
  br label %54, !llvm.loop !22

79:                                               ; preds = %73
  %80 = load i32, ptr %10, align 4, !tbaa !9
  %81 = load i32, ptr %8, align 4, !tbaa !9
  %82 = sub i32 %81, 1
  %83 = icmp eq i32 %80, %82
  br i1 %83, label %84, label %114

84:                                               ; preds = %79
  %85 = load ptr, ptr %7, align 8, !tbaa !16
  %86 = load i32, ptr %10, align 4, !tbaa !9
  %87 = zext i32 %86 to i64
  %88 = getelementptr inbounds nuw i8, ptr %85, i64 %87
  %89 = load i8, ptr %88, align 1, !tbaa !19
  %90 = zext i8 %89 to i32
  %91 = load ptr, ptr %5, align 8, !tbaa !16
  %92 = load i32, ptr %10, align 4, !tbaa !9
  %93 = zext i32 %92 to i64
  %94 = getelementptr inbounds nuw i8, ptr %91, i64 %93
  %95 = load i8, ptr %94, align 1, !tbaa !19
  %96 = zext i8 %95 to i32
  %97 = icmp eq i32 %90, %96
  br i1 %97, label %113, label %98

98:                                               ; preds = %84
  %99 = load ptr, ptr %7, align 8, !tbaa !16
  %100 = load i32, ptr %10, align 4, !tbaa !9
  %101 = zext i32 %100 to i64
  %102 = getelementptr inbounds nuw i8, ptr %99, i64 %101
  %103 = load i8, ptr %102, align 1, !tbaa !19
  %104 = zext i8 %103 to i32
  %105 = load ptr, ptr %5, align 8, !tbaa !16
  %106 = load i32, ptr %10, align 4, !tbaa !9
  %107 = zext i32 %106 to i64
  %108 = getelementptr inbounds nuw i8, ptr %105, i64 %107
  %109 = load i8, ptr %108, align 1, !tbaa !19
  %110 = zext i8 %109 to i32
  %111 = sub nsw i32 %110, 1
  %112 = icmp eq i32 %104, %111
  br i1 %112, label %113, label %114

113:                                              ; preds = %98, %84
  store i32 -98, ptr %9, align 4, !tbaa !9
  br label %130

114:                                              ; preds = %98, %79
  %115 = load ptr, ptr %7, align 8, !tbaa !16
  %116 = load i32, ptr %10, align 4, !tbaa !9
  %117 = zext i32 %116 to i64
  %118 = getelementptr inbounds nuw i8, ptr %115, i64 %117
  %119 = load i8, ptr %118, align 1, !tbaa !19
  %120 = zext i8 %119 to i32
  %121 = load ptr, ptr %5, align 8, !tbaa !16
  %122 = load i32, ptr %10, align 4, !tbaa !9
  %123 = zext i32 %122 to i64
  %124 = getelementptr inbounds nuw i8, ptr %121, i64 %123
  %125 = load i8, ptr %124, align 1, !tbaa !19
  %126 = zext i8 %125 to i32
  %127 = icmp sgt i32 %120, %126
  br i1 %127, label %128, label %129

128:                                              ; preds = %114
  store i32 -98, ptr %9, align 4, !tbaa !9
  br label %129

129:                                              ; preds = %128, %114
  br label %130

130:                                              ; preds = %129, %113
  br label %137

131:                                              ; preds = %49
  %132 = load i32, ptr %8, align 4, !tbaa !9
  %133 = load i32, ptr %6, align 4, !tbaa !9
  %134 = icmp ugt i32 %132, %133
  br i1 %134, label %135, label %136

135:                                              ; preds = %131
  store i32 -98, ptr %9, align 4, !tbaa !9
  br label %136

136:                                              ; preds = %135, %131
  br label %137

137:                                              ; preds = %136, %130
  br label %138

138:                                              ; preds = %137, %48
  %139 = load i32, ptr %9, align 4, !tbaa !9
  call void @llvm.lifetime.end.p0(i64 4, ptr %10) #9
  call void @llvm.lifetime.end.p0(i64 4, ptr %9) #9
  ret i32 %139
}