; Function Attrs: nofree norecurse nosync nounwind memory(argmem: read) uwtable
define range(i32 -98, 1) i32 @wc_DhCheckPubValue(ptr noundef readonly captures(none) %0, i32 noundef %1, ptr noundef readonly captures(none) %2, i32 noundef %3) local_unnamed_addr #4 {
  %.not = icmp eq i32 %3, 0
  br i1 %.not, label %.critedge.thread, label %.lr.ph.preheader

.lr.ph.preheader:                                 ; preds = %4
  %wide.trip.count = zext i32 %3 to i64
  br label %.lr.ph

.lr.ph:                                           ; preds = %.lr.ph.preheader, %8
  %indvars.iv = phi i64 [ 0, %.lr.ph.preheader ], [ %indvars.iv.next, %8 ]
  %5 = getelementptr inbounds nuw i8, ptr %2, i64 %indvars.iv
  %6 = load i8, ptr %5, align 1, !tbaa !13
  %7 = icmp eq i8 %6, 0
  br i1 %7, label %8, label %.critedge

8:                                                ; preds = %.lr.ph
  %indvars.iv.next = add nuw nsw i64 %indvars.iv, 1
  %exitcond.not = icmp eq i64 %indvars.iv.next, %wide.trip.count
  br i1 %exitcond.not, label %.critedge.thread, label %.lr.ph, !llvm.loop !14

.critedge:                                        ; preds = %.lr.ph
  %9 = trunc nuw i64 %indvars.iv to i32
  %10 = sub i32 %3, %9
  %11 = and i64 %indvars.iv, 4294967295
  %12 = getelementptr inbounds nuw i8, ptr %2, i64 %11
  %13 = icmp eq i32 %3, %9
  br i1 %13, label %.critedge.thread, label %14

14:                                               ; preds = %.critedge
  %15 = icmp eq i32 %10, 1
  br i1 %15, label %16, label %19

16:                                               ; preds = %14
  %17 = load i8, ptr %12, align 1, !tbaa !13
  %18 = icmp eq i8 %17, 1
  br i1 %18, label %.critedge.thread, label %19

19:                                               ; preds = %16, %14
  %20 = icmp eq i32 %10, %1
  br i1 %20, label %.preheader, label %47

.preheader:                                       ; preds = %19
  %21 = add i32 %1, -1
  %.not58 = icmp eq i32 %21, 0
  br i1 %.not58, label %.critedge2, label %.lr.ph52.preheader

.lr.ph52.preheader:                               ; preds = %.preheader
  %wide.trip.count63 = zext i32 %21 to i64
  br label %.lr.ph52

.lr.ph52:                                         ; preds = %.lr.ph52.preheader, %27
  %indvars.iv60 = phi i64 [ 0, %.lr.ph52.preheader ], [ %indvars.iv.next61, %27 ]
  %22 = getelementptr inbounds nuw i8, ptr %12, i64 %indvars.iv60
  %23 = load i8, ptr %22, align 1, !tbaa !13
  %24 = getelementptr inbounds nuw i8, ptr %0, i64 %indvars.iv60
  %25 = load i8, ptr %24, align 1, !tbaa !13
  %26 = icmp eq i8 %23, %25
  br i1 %26, label %27, label %.critedge2.loopexit

27:                                               ; preds = %.lr.ph52
  %indvars.iv.next61 = add nuw nsw i64 %indvars.iv60, 1
  %exitcond64.not = icmp eq i64 %indvars.iv.next61, %wide.trip.count63
  br i1 %exitcond64.not, label %.critedge2.thread, label %.lr.ph52, !llvm.loop !16

.critedge2.loopexit:                              ; preds = %.lr.ph52
  %28 = trunc nuw i64 %indvars.iv60 to i32
  br label %.critedge2

.critedge2:                                       ; preds = %.critedge2.loopexit, %.preheader
  %.1.lcssa = phi i32 [ 0, %.preheader ], [ %28, %.critedge2.loopexit ]
  %29 = icmp eq i32 %.1.lcssa, %21
  br i1 %29, label %.critedge2.thread, label %40

.critedge2.thread:                                ; preds = %27, %.critedge2
  %.1.lcssa68 = phi i32 [ %.1.lcssa, %.critedge2 ], [ %21, %27 ]
  %30 = zext i32 %21 to i64
  %31 = getelementptr inbounds nuw i8, ptr %12, i64 %30
  %32 = load i8, ptr %31, align 1, !tbaa !13
  %33 = getelementptr inbounds nuw i8, ptr %0, i64 %30
  %34 = load i8, ptr %33, align 1, !tbaa !13
  %35 = icmp eq i8 %32, %34
  %36 = zext i8 %34 to i32
  %37 = zext i8 %32 to i32
  %38 = add nsw i32 %36, -1
  %39 = icmp eq i32 %38, %37
  %or.cond = select i1 %35, i1 true, i1 %39
  br i1 %or.cond, label %.critedge.thread, label %40

40:                                               ; preds = %.critedge2.thread, %.critedge2
  %.1.lcssa67 = phi i32 [ %.1.lcssa68, %.critedge2.thread ], [ %.1.lcssa, %.critedge2 ]
  %41 = zext i32 %.1.lcssa67 to i64
  %42 = getelementptr inbounds nuw i8, ptr %12, i64 %41
  %43 = load i8, ptr %42, align 1, !tbaa !13
  %44 = getelementptr inbounds nuw i8, ptr %0, i64 %41
  %45 = load i8, ptr %44, align 1, !tbaa !13
  %46 = icmp ugt i8 %43, %45
  %spec.select = select i1 %46, i32 -98, i32 0
  br label %.critedge.thread

47:                                               ; preds = %19
  %48 = icmp ugt i32 %10, %1
  %spec.select47 = select i1 %48, i32 -98, i32 0
  br label %.critedge.thread

.critedge.thread:                                 ; preds = %8, %4, %47, %40, %.critedge2.thread, %.critedge, %16
  %.039 = phi i32 [ -98, %16 ], [ -98, %.critedge ], [ -98, %.critedge2.thread ], [ %spec.select, %40 ], [ %spec.select47, %47 ], [ -98, %4 ], [ -98, %8 ]
  ret i32 %.039
}